; ModuleID = '49/339.c'
source_filename = "49/339.c"
target datalayout = "e-m:e-p270:32:32-p271:32:32-p272:64:64-i64:64-f80:128-n8:16:32:64-S128"
target triple = "x86_64-pc-linux-gnu"

@.str = private unnamed_addr constant [3 x i8] c"%s\00", align 1
@.str.1 = private unnamed_addr constant [3 x i8] c"%c\00", align 1
@.str.2 = private unnamed_addr constant [2 x i8] c"\0A\00", align 1

; Function Attrs: noinline nounwind uwtable
define dso_local i32 @main() #0 {
  %1 = alloca i32, align 4
  %2 = alloca [100 x i8], align 16
  %3 = alloca i32, align 4
  %4 = alloca i32, align 4
  %5 = alloca i32, align 4
  %6 = alloca i32, align 4
  store i32 0, i32* %1, align 4
  %7 = getelementptr inbounds [100 x i8], [100 x i8]* %2, i64 0, i64 0
  %8 = call i32 (i8*, ...) @__isoc99_scanf(i8* getelementptr inbounds ([3 x i8], [3 x i8]* @.str, i64 0, i64 0), i8* %7)
  %9 = getelementptr inbounds [100 x i8], [100 x i8]* %2, i64 0, i64 0
  %10 = call i64 @strlen(i8* %9) #3
  %11 = trunc i64 %10 to i32
  store i32 %11, i32* %3, align 4
  store i32 100, i32* %6, align 4
  store i32 2, i32* %4, align 4
  br label %12

12:                                               ; preds = %95, %0
  %13 = load i32, i32* %4, align 4
  %14 = load i32, i32* %3, align 4
  %15 = icmp sle i32 %13, %14
  br i1 %15, label %16, label %98

16:                                               ; preds = %12
  store i32 0, i32* %5, align 4
  br label %17

17:                                               ; preds = %91, %16
  %18 = load i32, i32* %5, align 4
  %19 = load i32, i32* %4, align 4
  %20 = add nsw i32 %18, %19
  %21 = load i32, i32* %3, align 4
  %22 = icmp sle i32 %20, %21
  br i1 %22, label %23, label %94

23:                                               ; preds = %17
  %24 = load i32, i32* %5, align 4
  store i32 %24, i32* %6, align 4
  br label %25

25:                                               ; preds = %52, %23
  %26 = load i32, i32* %6, align 4
  %27 = load i32, i32* %5, align 4
  %28 = load i32, i32* %4, align 4
  %29 = add nsw i32 %27, %28
  %30 = sub nsw i32 %29, 1
  %31 = icmp sle i32 %26, %30
  br i1 %31, label %32, label %55

32:                                               ; preds = %25
  %33 = load i32, i32* %6, align 4
  %34 = sext i32 %33 to i64
  %35 = getelementptr inbounds [100 x i8], [100 x i8]* %2, i64 0, i64 %34
  %36 = load i8, i8* %35, align 1
  %37 = sext i8 %36 to i32
  %38 = load i32, i32* %5, align 4
  %39 = mul nsw i32 2, %38
  %40 = load i32, i32* %4, align 4
  %41 = add nsw i32 %39, %40
  %42 = sub nsw i32 %41, 1
  %43 = load i32, i32* %6, align 4
  %44 = sub nsw i32 %42, %43
  %45 = sext i32 %44 to i64
  %46 = getelementptr inbounds [100 x i8], [100 x i8]* %2, i64 0, i64 %45
  %47 = load i8, i8* %46, align 1
  %48 = sext i8 %47 to i32
  %49 = icmp ne i32 %37, %48
  br i1 %49, label %50, label %51

50:                                               ; preds = %32
  br label %55

51:                                               ; preds = %32
  br label %52

52:                                               ; preds = %51
  %53 = load i32, i32* %6, align 4
  %54 = add nsw i32 %53, 1
  store i32 %54, i32* %6, align 4
  br label %25

55:                                               ; preds = %50, %25
  %56 = load i32, i32* %6, align 4
  %57 = load i32, i32* %5, align 4
  %58 = load i32, i32* %4, align 4
  %59 = add nsw i32 %57, %58
  %60 = icmp eq i32 %56, %59
  br i1 %60, label %61, label %90

61:                                               ; preds = %55
  %62 = load i32, i32* %5, align 4
  store i32 %62, i32* %6, align 4
  br label %63

63:                                               ; preds = %86, %61
  %64 = load i32, i32* %6, align 4
  %65 = load i32, i32* %5, align 4
  %66 = load i32, i32* %4, align 4
  %67 = add nsw i32 %65, %66
  %68 = sub nsw i32 %67, 1
  %69 = icmp sle i32 %64, %68
  br i1 %69, label %70, label %89

70:                                               ; preds = %63
  %71 = load i32, i32* %6, align 4
  %72 = sext i32 %71 to i64
  %73 = getelementptr inbounds [100 x i8], [100 x i8]* %2, i64 0, i64 %72
  %74 = load i8, i8* %73, align 1
  %75 = sext i8 %74 to i32
  %76 = call i32 (i8*, ...) @printf(i8* getelementptr inbounds ([3 x i8], [3 x i8]* @.str.1, i64 0, i64 0), i32 %75)
  %77 = load i32, i32* %6, align 4
  %78 = load i32, i32* %5, align 4
  %79 = load i32, i32* %4, align 4
  %80 = add nsw i32 %78, %79
  %81 = sub nsw i32 %80, 1
  %82 = icmp eq i32 %77, %81
  br i1 %82, label %83, label %85

83:                                               ; preds = %70
  %84 = call i32 (i8*, ...) @printf(i8* getelementptr inbounds ([2 x i8], [2 x i8]* @.str.2, i64 0, i64 0))
  br label %85

85:                                               ; preds = %83, %70
  br label %86

86:                                               ; preds = %85
  %87 = load i32, i32* %6, align 4
  %88 = add nsw i32 %87, 1
  store i32 %88, i32* %6, align 4
  br label %63

89:                                               ; preds = %63
  br label %90

90:                                               ; preds = %89, %55
  store i32 100, i32* %6, align 4
  br label %91

91:                                               ; preds = %90
  %92 = load i32, i32* %5, align 4
  %93 = add nsw i32 %92, 1
  store i32 %93, i32* %5, align 4
  br label %17

94:                                               ; preds = %17
  br label %95

95:                                               ; preds = %94
  %96 = load i32, i32* %4, align 4
  %97 = add nsw i32 %96, 1
  store i32 %97, i32* %4, align 4
  br label %12

98:                                               ; preds = %12
  %99 = call i32 @getchar()
  %100 = call i32 @getchar()
  %101 = call i32 @getchar()
  %102 = load i32, i32* %1, align 4
  ret i32 %102
}

declare dso_local i32 @__isoc99_scanf(i8*, ...) #1

; Function Attrs: nounwind readonly
declare dso_local i64 @strlen(i8*) #2

declare dso_local i32 @printf(i8*, ...) #1

declare dso_local i32 @getchar() #1


!llvm.module.flags = !{!0}
!llvm.ident = !{!1}

!0 = !{i32 1, !"wchar_size", i32 4}
!1 = !{!"clang version 10.0.0-4ubuntu1 "}
